target datalayout = "e-m:e-p270:32:32-p271:32:32-p272:64:64-i64:64-i128:128-f80:128-n8:16:32:64-S128"
target triple = "x86_64-pc-linux-gnu"

%struct.RelFileLocator = type { i32, i32, i32 }
%struct.SMgrRelationData = type { %struct.RelFileLocatorBackend, i32, [4 x i32], i32, [4 x i32], [4 x ptr], i32, %struct.dlist_node }
%struct.RelFileLocatorBackend = type { %struct.RelFileLocator, i32 }
%struct.dlist_node = type { ptr, ptr }
%struct.PendingRelDelete = type { %struct.RelFileLocator, i32, i8, i32, ptr }
%struct.xl_smgr_create = type { %struct.RelFileLocator, i32 }
%struct.HASHCTL = type { i64, i64, i64, i64, i64, i64, ptr, ptr, ptr, ptr, ptr, ptr }
%struct.PendingRelSync = type { %struct.RelFileLocator, i8 }

@ParallelLeaderProcNumber = external global i32, align 4
@MyProcNumber = external global i32, align 4
@.str = private unnamed_addr constant [27 x i8] c"invalid relpersistence: %c\00", align 1
@.str.1 = private unnamed_addr constant [10 x i8] c"storage.c\00", align 1
@__func__.RelationCreateStorage = private unnamed_addr constant [22 x i8] c"RelationCreateStorage\00", align 1
@TopMemoryContext = external global ptr, align 8
@pendingDeletes = internal global ptr null, align 8
@wal_level = external global i32, align 4
@pendingSyncHash = internal global ptr null, align 8
@TopTransactionContext = external global ptr, align 8
@.str.5 = private unnamed_addr constant [18 x i8] c"pending sync hash\00", align 1

; Function Attrs: nounwind uwtable
define internal void @AddPendingSync(ptr noundef %0) #0 {
  %2 = alloca ptr, align 8
  %3 = alloca ptr, align 8
  %4 = alloca i8, align 1
  %5 = alloca %struct.HASHCTL, align 8
  store ptr %0, ptr %2, align 8
  call void @llvm.lifetime.start.p0(i64 8, ptr %3) #8
  call void @llvm.lifetime.start.p0(i64 1, ptr %4) #8
  %6 = load ptr, ptr @pendingSyncHash, align 8
  %7 = icmp ne ptr %6, null
  br i1 %7, label %14, label %8

8:                                                ; preds = %1
  call void @llvm.lifetime.start.p0(i64 96, ptr %5) #8
  %9 = getelementptr inbounds nuw %struct.HASHCTL, ptr %5, i32 0, i32 4
  store i64 12, ptr %9, align 8
  %10 = getelementptr inbounds nuw %struct.HASHCTL, ptr %5, i32 0, i32 5
  store i64 16, ptr %10, align 8
  %11 = load ptr, ptr @TopTransactionContext, align 8
  %12 = getelementptr inbounds nuw %struct.HASHCTL, ptr %5, i32 0, i32 10
  store ptr %11, ptr %12, align 8
  %13 = call ptr @hash_create(ptr noundef @.str.5, i64 noundef 16, ptr noundef %5, i32 noundef 1064)
  store ptr %13, ptr @pendingSyncHash, align 8
  call void @llvm.lifetime.end.p0(i64 96, ptr %5) #8
  br label %14

14:                                               ; preds = %8, %1
  %15 = load ptr, ptr @pendingSyncHash, align 8
  %16 = load ptr, ptr %2, align 8
  %17 = call ptr @hash_search(ptr noundef %15, ptr noundef %16, i32 noundef 1, ptr noundef %4)
  store ptr %17, ptr %3, align 8
  %18 = load ptr, ptr %3, align 8
  %19 = getelementptr inbounds nuw %struct.PendingRelSync, ptr %18, i32 0, i32 1
  store i8 0, ptr %19, align 4
  call void @llvm.lifetime.end.p0(i64 1, ptr %4) #8
  call void @llvm.lifetime.end.p0(i64 8, ptr %3) #8
  ret void
}

; Function Attrs: nounwind uwtable
define dso_local void @log_smgrcreate(ptr noundef %0, i32 noundef %1) #0 {
  %3 = alloca ptr, align 8
  %4 = alloca i32, align 4
  %5 = alloca %struct.xl_smgr_create, align 4
  store ptr %0, ptr %3, align 8
  store i32 %1, ptr %4, align 4
  call void @llvm.lifetime.start.p0(i64 16, ptr %5) #8
  %6 = getelementptr inbounds nuw %struct.xl_smgr_create, ptr %5, i32 0, i32 0
  %7 = load ptr, ptr %3, align 8
  call void @llvm.memcpy.p0.p0.i64(ptr align 4 %6, ptr align 4 %7, i64 12, i1 false)
  %8 = load i32, ptr %4, align 4
  %9 = getelementptr inbounds nuw %struct.xl_smgr_create, ptr %5, i32 0, i32 1
  store i32 %8, ptr %9, align 4
  call void @XLogBeginInsert()
  call void @XLogRegisterData(ptr noundef %5, i32 noundef 16)
  %10 = call i64 @XLogInsert(i8 noundef zeroext 2, i8 noundef zeroext 17)
  call void @llvm.lifetime.end.p0(i64 16, ptr %5) #8
  ret void
}

; Function Attrs: nounwind uwtable
define dso_local ptr @RelationCreateStorage(i64 %0, i32 %1, i8 noundef signext %2, i1 noundef zeroext %3) #0 {
  %5 = alloca ptr, align 8
  %6 = alloca %struct.RelFileLocator, align 4
  %7 = alloca { i64, i32 }, align 4
  %8 = alloca i8, align 1
  %9 = alloca i8, align 1
  %10 = alloca ptr, align 8
  %11 = alloca i32, align 4
  %12 = alloca i8, align 1
  %13 = alloca i32, align 4
  %14 = alloca { i64, i32 }, align 4
  %15 = alloca ptr, align 8
  %16 = getelementptr inbounds nuw { i64, i32 }, ptr %7, i32 0, i32 0
  store i64 %0, ptr %16, align 4
  %17 = getelementptr inbounds nuw { i64, i32 }, ptr %7, i32 0, i32 1
  store i32 %1, ptr %17, align 4
  call void @llvm.memcpy.p0.p0.i64(ptr align 4 %6, ptr align 4 %7, i64 12, i1 false)
  store i8 %2, ptr %8, align 1
  %18 = zext i1 %3 to i8
  store i8 %18, ptr %9, align 1
  call void @llvm.lifetime.start.p0(i64 8, ptr %10) #8
  call void @llvm.lifetime.start.p0(i64 4, ptr %11) #8
  call void @llvm.lifetime.start.p0(i64 1, ptr %12) #8
  %19 = load i8, ptr %8, align 1
  %20 = sext i8 %19 to i32
  switch i32 %20, label %32 [
    i32 116, label %21
    i32 117, label %30
    i32 112, label %31
  ]

21:                                               ; preds = %4
  %22 = load i32, ptr @ParallelLeaderProcNumber, align 4
  %23 = icmp eq i32 %22, -1
  br i1 %23, label %24, label %26

24:                                               ; preds = %21
  %25 = load i32, ptr @MyProcNumber, align 4
  br label %28

26:                                               ; preds = %21
  %27 = load i32, ptr @ParallelLeaderProcNumber, align 4
  br label %28

28:                                               ; preds = %26, %24
  %29 = phi i32 [ %25, %24 ], [ %27, %26 ]
  store i32 %29, ptr %11, align 4
  store i8 0, ptr %12, align 1
  br label %45

30:                                               ; preds = %4
  store i32 -1, ptr %11, align 4
  store i8 0, ptr %12, align 1
  br label %45

31:                                               ; preds = %4
  store i32 -1, ptr %11, align 4
  store i8 1, ptr %12, align 1
  br label %45

32:                                               ; preds = %4
  br label %33

33:                                               ; preds = %32
  br i1 true, label %34, label %36

34:                                               ; preds = %33
  %35 = call zeroext i1 @errstart_cold(i32 noundef 21, ptr noundef null) #9
  br i1 %35, label %38, label %42

36:                                               ; preds = %33
  %37 = call zeroext i1 @errstart(i32 noundef 21, ptr noundef null)
  br i1 %37, label %38, label %42

38:                                               ; preds = %36, %34
  %39 = load i8, ptr %8, align 1
  %40 = sext i8 %39 to i32
  %41 = call i32 (ptr, ...) @errmsg_internal(ptr noundef @.str, i32 noundef %40)
  call void @errfinish(ptr noundef @.str.1, i32 noundef 145, ptr noundef @__func__.RelationCreateStorage)
  br label %42

42:                                               ; preds = %38, %36, %34
  unreachable

43:                                               ; No predecessors!
  br label %44

44:                                               ; preds = %43
  store ptr null, ptr %5, align 8
  store i32 1, ptr %13, align 4
  br label %89

45:                                               ; preds = %31, %30, %28
  %46 = load i32, ptr %11, align 4
  call void @llvm.memcpy.p0.p0.i64(ptr align 4 %14, ptr align 4 %6, i64 12, i1 false)
  %47 = getelementptr inbounds nuw { i64, i32 }, ptr %14, i32 0, i32 0
  %48 = load i64, ptr %47, align 4
  %49 = getelementptr inbounds nuw { i64, i32 }, ptr %14, i32 0, i32 1
  %50 = load i32, ptr %49, align 4
  %51 = call ptr @smgropen(i64 %48, i32 %50, i32 noundef %46)
  store ptr %51, ptr %10, align 8
  %52 = load ptr, ptr %10, align 8
  call void @smgrcreate(ptr noundef %52, i32 noundef 0, i1 noundef zeroext false)
  %53 = load i8, ptr %12, align 1, !range !4, !noundef !5
  %54 = trunc i8 %53 to i1
  br i1 %54, label %55, label %59

55:                                               ; preds = %45
  %56 = load ptr, ptr %10, align 8
  %57 = getelementptr inbounds nuw %struct.SMgrRelationData, ptr %56, i32 0, i32 0
  %58 = getelementptr inbounds nuw %struct.RelFileLocatorBackend, ptr %57, i32 0, i32 0
  call void @log_smgrcreate(ptr noundef %58, i32 noundef 0)
  br label %59

59:                                               ; preds = %55, %45
  %60 = load i8, ptr %9, align 1, !range !4, !noundef !5
  %61 = trunc i8 %60 to i1
  br i1 %61, label %62, label %79

62:                                               ; preds = %59
  call void @llvm.lifetime.start.p0(i64 8, ptr %15) #8
  %63 = load ptr, ptr @TopMemoryContext, align 8
  %64 = call ptr @MemoryContextAlloc(ptr noundef %63, i64 noundef 32)
  store ptr %64, ptr %15, align 8
  %65 = load ptr, ptr %15, align 8
  %66 = getelementptr inbounds nuw %struct.PendingRelDelete, ptr %65, i32 0, i32 0
  call void @llvm.memcpy.p0.p0.i64(ptr align 8 %66, ptr align 4 %6, i64 12, i1 false)
  %67 = load i32, ptr %11, align 4
  %68 = load ptr, ptr %15, align 8
  %69 = getelementptr inbounds nuw %struct.PendingRelDelete, ptr %68, i32 0, i32 1
  store i32 %67, ptr %69, align 4
  %70 = load ptr, ptr %15, align 8
  %71 = getelementptr inbounds nuw %struct.PendingRelDelete, ptr %70, i32 0, i32 2
  store i8 0, ptr %71, align 8
  %72 = call i32 @GetCurrentTransactionNestLevel()
  %73 = load ptr, ptr %15, align 8
  %74 = getelementptr inbounds nuw %struct.PendingRelDelete, ptr %73, i32 0, i32 3
  store i32 %72, ptr %74, align 4
  %75 = load ptr, ptr @pendingDeletes, align 8
  %76 = load ptr, ptr %15, align 8
  %77 = getelementptr inbounds nuw %struct.PendingRelDelete, ptr %76, i32 0, i32 4
  store ptr %75, ptr %77, align 8
  %78 = load ptr, ptr %15, align 8
  store ptr %78, ptr @pendingDeletes, align 8
  call void @llvm.lifetime.end.p0(i64 8, ptr %15) #8
  br label %79

79:                                               ; preds = %62, %59
  %80 = load i8, ptr %8, align 1
  %81 = sext i8 %80 to i32
  %82 = icmp eq i32 %81, 112
  br i1 %82, label %83, label %87

83:                                               ; preds = %79
  %84 = load i32, ptr @wal_level, align 4
  %85 = icmp sge i32 %84, 1
  br i1 %85, label %87, label %86

86:                                               ; preds = %83
  call void @AddPendingSync(ptr noundef %6)
  br label %87

87:                                               ; preds = %86, %83, %79
  %88 = load ptr, ptr %10, align 8
  store ptr %88, ptr %5, align 8
  store i32 1, ptr %13, align 4
  br label %89

89:                                               ; preds = %87, %44
  call void @llvm.lifetime.end.p0(i64 1, ptr %12) #8
  call void @llvm.lifetime.end.p0(i64 4, ptr %11) #8
  call void @llvm.lifetime.end.p0(i64 8, ptr %10) #8
  %90 = load ptr, ptr %5, align 8
  ret ptr %90
}