; Function Attrs: nounwind uwtable
define dso_local noundef ptr @RelationCreateStorage(i64 %0, i32 %1, i8 noundef signext %2, i1 noundef zeroext %3) local_unnamed_addr #0 {
  %5 = alloca i8, align 1
  %6 = alloca %struct.HASHCTL, align 8
  %7 = alloca %struct.xl_smgr_create, align 4
  %8 = alloca %struct.RelFileLocator, align 8
  store i64 %0, ptr %8, align 8
  %.sroa.217.0..sroa_idx = getelementptr inbounds nuw i8, ptr %8, i64 8
  store i32 %1, ptr %.sroa.217.0..sroa_idx, align 8
  switch i8 %2, label %15 [
    i8 116, label %9
    i8 117, label %19
    i8 112, label %14
  ]

9:                                                ; preds = %4
  %10 = load i32, ptr @ParallelLeaderProcNumber, align 4
  %11 = icmp eq i32 %10, -1
  %12 = load i32, ptr @MyProcNumber, align 4
  %13 = select i1 %11, i32 %12, i32 %10
  br label %19

14:                                               ; preds = %4
  br label %19

15:                                               ; preds = %4
  %16 = sext i8 %2 to i32
  %17 = tail call zeroext i1 @errstart_cold(i32 noundef 21, ptr noundef null) #7
  tail call void @llvm.assume(i1 %17)
  %18 = tail call i32 (ptr, ...) @errmsg_internal(ptr noundef nonnull @.str, i32 noundef %16) #8
  tail call void @errfinish(ptr noundef nonnull @.str.1, i32 noundef 145, ptr noundef nonnull @__func__.RelationCreateStorage) #8
  unreachable

19:                                               ; preds = %4, %14, %9
  %.019 = phi i1 [ true, %14 ], [ false, %9 ], [ false, %4 ]
  %.0 = phi i32 [ -1, %14 ], [ %13, %9 ], [ -1, %4 ]
  %20 = tail call ptr @smgropen(i64 %0, i32 %1, i32 noundef %.0) #8
  tail call void @smgrcreate(ptr noundef %20, i32 noundef 0, i1 noundef zeroext false) #8
  br i1 %.019, label %21, label %24

21:                                               ; preds = %19
  call void @llvm.lifetime.start.p0(i64 16, ptr nonnull %7) #8
  call void @llvm.memcpy.p0.p0.i64(ptr noundef nonnull align 4 dereferenceable(12) %7, ptr noundef nonnull readonly align 4 dereferenceable(12) %20, i64 12, i1 false)
  %22 = getelementptr inbounds nuw i8, ptr %7, i64 12
  store i32 0, ptr %22, align 4
  tail call void @XLogBeginInsert() #8
  call void @XLogRegisterData(ptr noundef nonnull %7, i32 noundef 16) #8
  %23 = call i64 @XLogInsert(i8 noundef zeroext 2, i8 noundef zeroext 17) #8
  call void @llvm.lifetime.end.p0(i64 16, ptr nonnull %7) #8
  br label %24

24:                                               ; preds = %21, %19
  br i1 %3, label %25, label %34

25:                                               ; preds = %24
  %26 = load ptr, ptr @TopMemoryContext, align 8
  %27 = call ptr @MemoryContextAlloc(ptr noundef %26, i64 noundef 32) #8
  call void @llvm.memcpy.p0.p0.i64(ptr noundef nonnull align 8 dereferenceable(12) %27, ptr noundef nonnull align 8 dereferenceable(12) %8, i64 12, i1 false)
  %28 = getelementptr inbounds nuw i8, ptr %27, i64 12
  store i32 %.0, ptr %28, align 4
  %29 = getelementptr inbounds nuw i8, ptr %27, i64 16
  store i8 0, ptr %29, align 8
  %30 = call i32 @GetCurrentTransactionNestLevel() #8
  %31 = getelementptr inbounds nuw i8, ptr %27, i64 20
  store i32 %30, ptr %31, align 4
  %32 = load ptr, ptr @pendingDeletes, align 8
  %33 = getelementptr inbounds nuw i8, ptr %27, i64 24
  store ptr %32, ptr %33, align 8
  store ptr %27, ptr @pendingDeletes, align 8
  br label %34

34:                                               ; preds = %25, %24
  %35 = icmp ne i8 %2, 112
  %36 = load i32, ptr @wal_level, align 4
  %37 = icmp sgt i32 %36, 0
  %or.cond = select i1 %35, i1 true, i1 %37
  br i1 %or.cond, label %49, label %38

38:                                               ; preds = %34
  call void @llvm.lifetime.start.p0(i64 1, ptr nonnull %5) #8
  %39 = load ptr, ptr @pendingSyncHash, align 8
  %.not.i = icmp eq ptr %39, null
  br i1 %.not.i, label %40, label %AddPendingSync.exit

40:                                               ; preds = %38
  call void @llvm.lifetime.start.p0(i64 96, ptr nonnull %6) #8
  %41 = getelementptr inbounds nuw i8, ptr %6, i64 32
  store i64 12, ptr %41, align 8
  %42 = getelementptr inbounds nuw i8, ptr %6, i64 40
  store i64 16, ptr %42, align 8
  %43 = load ptr, ptr @TopTransactionContext, align 8
  %44 = getelementptr inbounds nuw i8, ptr %6, i64 80
  store ptr %43, ptr %44, align 8
  %45 = call ptr @hash_create(ptr noundef nonnull @.str.5, i64 noundef 16, ptr noundef nonnull %6, i32 noundef 1064) #8
  store ptr %45, ptr @pendingSyncHash, align 8
  call void @llvm.lifetime.end.p0(i64 96, ptr nonnull %6) #8
  br label %AddPendingSync.exit

AddPendingSync.exit:                              ; preds = %38, %40
  %46 = phi ptr [ %45, %40 ], [ %39, %38 ]
  %47 = call ptr @hash_search(ptr noundef %46, ptr noundef nonnull %8, i32 noundef 1, ptr noundef nonnull %5) #8
  %48 = getelementptr inbounds nuw i8, ptr %47, i64 12
  store i8 0, ptr %48, align 4
  call void @llvm.lifetime.end.p0(i64 1, ptr nonnull %5) #8
  br label %49

49:                                               ; preds = %AddPendingSync.exit, %34
  ret ptr %20
}